; Function Attrs: mustprogress uwtable
define hidden noundef ptr @_ZN7datalog24external_relation_plugin13mk_project_fnERKNS_13relation_baseEjPKj(ptr noundef nonnull align 8 dereferenceable(48) %this, ptr noundef nonnull align 8 dereferenceable(28) %r, i32 noundef %col_cnt, ptr noundef %removed_cols) unnamed_addr #3 align 2 {
entry:
  %call = tail call noalias noundef ptr @_ZN6memory8allocateEm(i64 noundef 48)
  %0 = tail call ptr @__dynamic_cast(ptr nonnull %r, ptr nonnull @_ZTIN7datalog13relation_baseE, ptr nonnull @_ZTIN7datalog17external_relationE, i64 0) #17
  %1 = icmp eq ptr %0, null
  br i1 %1, label %dynamic_cast.bad_cast.i, label %_ZN7datalog24external_relation_plugin3getERKNS_13relation_baseE.exit

dynamic_cast.bad_cast.i:                          ; preds = %entry
  tail call void @__cxa_bad_cast() #20
  unreachable

_ZN7datalog24external_relation_plugin3getERKNS_13relation_baseE.exit: ; preds = %entry
  %m_rel.i = getelementptr inbounds i8, ptr %0, i64 32
  %2 = load ptr, ptr %m_rel.i, align 8
  %call2.i = tail call noundef ptr @_ZNK4expr8get_sortEv(ptr noundef nonnull align 4 dereferenceable(16) %2)
  %m_signature.i = getelementptr inbounds i8, ptr %r, i64 16
  tail call void @_ZN7datalog24external_relation_plugin10project_fnC2ERS0_P4sortRKNS_18relation_signatureEjPKj(ptr noundef nonnull align 8 dereferenceable(48) %call, ptr noundef nonnull align 8 dereferenceable(48) %this, ptr noundef %call2.i, ptr noundef nonnull align 8 dereferenceable(8) %m_signature.i, i32 noundef %col_cnt, ptr noundef %removed_cols)
  ret ptr %call
}